; Function Attrs: mustprogress noreturn uwtable
define void @_ZN8nanobind10raise_fromERNS_12python_errorENS_6handleEPKcz(ptr noundef nonnull align 8 captures(none) dereferenceable(40) %0, ptr %1, ptr noundef %2, ...) local_unnamed_addr #17 {
  %4 = alloca [1 x %struct.__va_list_tag], align 16
  tail call void @_ZN8nanobind12python_error7restoreEv(ptr noundef nonnull align 8 dereferenceable(40) %0) #26
  call void @llvm.lifetime.start.p0(i64 24, ptr nonnull %4) #26
  call void @llvm.va_start.p0(ptr nonnull %4)
  call fastcc void @_ZN8nanobindL13chain_error_vENS_6handleEPKcP13__va_list_tag(ptr %1, ptr noundef %2, ptr noundef %4) #26
  call void @llvm.va_end.p0(ptr nonnull %4)
  call void @_ZN8nanobind6detail18raise_python_errorEv() #33
  unreachable
}